; Function Attrs: nounwind uwtable
define dso_local { i64, ptr } @jq_get_prog_origin(ptr noundef readonly captures(none) %0) local_unnamed_addr #0 {
  %2 = tail call { i64, ptr } @jv_string(ptr noundef nonnull @.str.22) #13
  %3 = extractvalue { i64, ptr } %2, 0
  %4 = extractvalue { i64, ptr } %2, 1
  %5 = getelementptr inbounds nuw i8, ptr %0, i64 176
  %6 = load i64, ptr %5, align 8
  %7 = getelementptr inbounds nuw i8, ptr %0, i64 184
  %8 = load ptr, ptr %7, align 8
  %9 = tail call { i64, ptr } @jv_copy(i64 %6, ptr %8) #13
  %10 = extractvalue { i64, ptr } %9, 0
  %11 = extractvalue { i64, ptr } %9, 1
  %12 = tail call { i64, ptr } @jv_object_get(i64 %10, ptr %11, i64 %3, ptr %4) #13
  ret { i64, ptr } %12
}